; Function Attrs: mustprogress sspstrong uwtable
define noundef zeroext i1 @_ZN4FLAC8Metadata5Chain24check_if_tempfile_neededEb(ptr nocapture noundef nonnull readonly align 8 dereferenceable(16) %this, i1 noundef zeroext %use_padding) local_unnamed_addr #0 align 2 {
entry:
  %chain_ = getelementptr inbounds i8, ptr %this, i64 8
  %0 = load ptr, ptr %chain_, align 8
  %conv = zext i1 %use_padding to i32
  %call = tail call i32 @FLAC__metadata_chain_check_if_tempfile_needed(ptr noundef %0, i32 noundef %conv)
  %tobool2 = icmp ne i32 %call, 0
  ret i1 %tobool2
}